(dp1
S'_apreciacion_Articulos_masculino_plural_locativo_plural_comida'
p2
S'adoracion_comida'
p3
sS'Pronombre_complemento_indirecto_singular_Gusto_cantidad_mucha'
p4
S'gusto_alto'
p5
sS'_complemento_ser_verbo_singular_prserente_Articulos_indefinino_masculino_singular_vehiculo'
p6
S'pregunta_algo'
p7
sS'Articulos_femenino_singular_prostituta_complemento_Pronombre_complemento_indirecto_singular_verbo_parir'
p8
S'insulto'
p9
sS'Posserivos_singular_verbo_personal_pasado_animal_ser_verbo_singular_prserente_adjetivo_bueno'
p10
S'afirmacion_buena'
p11
sS'Pronombre_complemento_indirecto_singular_verbo_pasado_de_Articulos_femenino_singular_objeto'
p12
S'caer_de_lugar'
p13
sS'Pronombre_complemento_indirecto_singular_verbo_pasado_Articulos_masculino_singular_prenda_vestir'
p14
S'ensuciar_algo'
p15
sS'_ser_adjetivo_bueno'
p16
S'admiracion'
p17
sS'Pronombre_complemento_indirecto_singular_Gusto_Articulos_masculino_singular_alimento'
p18
S'gusto_alimento'
p19
sS'llamas_consulta_llamas_ser_verbo_singular_presente_Articulos_Dirigido_nombre'
p20
S'pregunta_nombre'
p21
sS'_estado_bueno_locativo_Objetivo'
p22
S'estado_bueno'
p23
sS'Personal_pronombre_sujeto_tener_enfermedad'
p24
S'tener_enfermedad'
p25
sS'_adjetivo_bueno_verbo_singular_presente_tiempo_verbo_singular_presente'
p26
S'saludo;saludo_noche'
p27
sS'objetivo_verbo_singular_presente_adjetivo_bueno'
p28
S'afirmacion_objetiva_buena'
p29
sS'_complemento_ser_verbo_singular_prserente_red_social'
p30
S'pregunta_red_social'
p31
sS'Pronombre_complemento_indirecto_singular_Gusto_Pronombre_demostrativo_femenino_singular_mujer'
p32
S'gusto_amor'
p33
sS'Pronombre_complemento_indirecto_singular_rechazo'
p34
S'odio'
p35
sS'Pronombre_complemento_indirecto_singular_verbo_malo_verbo_singular_personal'
p36
S'accion_orinar'
p37
sS'adjetivo_bueno_verbo_singular_presente_tiempo_verbo_singular_presente'
p38
S'saludo;despedida'
p39
sS'apreciacion_verbo_malo_verbo_singular_personas'
p40
S'apreciacion_accion_mala'
p41
sS'indicador_indicativo'
p42
S'consulta_pregunta'
p43
sS'ser_plural_cantidad_insulto_prural'
p44
S'afirmacion_todos_insulto'
p45
sS'_tener_enfermedad_verbo_singular'
p46
S'd'
sS'Posesivos_singular_verbo_personal_pasado_dispositivo_verbo_singular_ser_verbo_singular_presente_adjetivo'
p47
S'afirmacion_algo_pequenio'
p48
sS'Articulos_masculino_singular_ser_verbo_singular_presente_adjetivo_malo'
p49
S'afirmacion_mala'
p50
sS'Posesivos_singular_verbo_personal_pasado_vehiculo_ser_verbo_singular_presente_adjetivo'
p51
S'algo_grande'
p52
sS'_apreciacion_verbo_malo_verbo_singular_personas'
p53
S'apreciacion_accion_mala'
p54
sS'Pronombre_complemento_indirecto_singular_verbo_Articulos_Dirigido_accion_mala_verbo_singular'
p55
S'auto_accion'
p56
sS'Pronombre_complemento_indirecto_singular_verbo_singular_excremento'
p57
S'ganas_defecar'
p58
sS'_rechazo_Articulos_Dirigido_Pronombre_demostrativo_masculino_singular_verbo_singular_personal_insulto'
p59
S'odio_hacia_persona'
p60
sS'_ser_Articulos_indefinino_masculino_singular_facantidadiar_de_cantidad_prostitutas_verbo_singular_presente'
p61
S'insulto'
p62
sS'Pronombre_complemento_indirecto_singular_dolor_Articulos_femenino_singular_parte del cuerp'
p63
(lp64
S'dolor de algo'
p65
asS'_ser_verbo_singular_presente_adjetivo_bueno'
p66
S'expresion_buena'
p67
sS'Pronombre_complemento_indirecto_singular_Gusto_verbo_comer_verbo_singular_alimento'
p68
S'comer_algo'
p69
sS'Pronombre_complemento_indirecto_singular_caer_de_Articulos_femenino_singular_lugar'
p70
(lp71
S'caerse de un lugar'
p72
asS'_saludo'
p73
(lp74
S'saludo'
p75
asS'verbo_verbo_verbo_singular'
p76
S'gusto de algo'
p77
sS'Posesivos_singular_verbo_personal_pasado_objeto_ser_verbo_singular_presente_adjetivo'
p78
S'afirmacion_algo_corto'
p79
sS'_consulta_Pronombre_complemento_indirecto_singular_nombre_verbo_singular_presente_tiempo_presente'
p80
S'pregunta_nombre'
p81
sS'Pronombre_complemento_indirecto_singular_gusto_Articulos_femenino_plural_verbo_singular_presente_locativo_plural_tiempo_presente_alimentos_verbo_singular_presente'
p82
S'gusto_de_frutas'
p83
sS'Articulos_masculino_singular_color_ser_verbo_singular_presente_adjetivo_malo'
p84
S'afirmacion_algo_malo'
p85
sS'Pronombre_complemento_indirecto_singular_dolor_Articulos_femenino_singular_parte del cuerpo'
p86
(lp87
S'tener dolor'
p88
asS'_verbo_amar_accion_mala_verbo_singular'
p89
S'accion_mala'
p90
sS'_rechazo_Articulos_femenino_singular_alimento'
p91
S'odio_hacia_comida'
p92
sS'Pronombre_complemento_indirecto_singular_Gusto_accion_mala_verbo_singular_personas'
p93
(lp94
S'accion mala'
p95
asS'Pronombre_complemento_indirecto_singular_verbo_de_Pronombre_demostrativo_adverbio'
p96
S'afirmacion_irse'
p97
sS'Pronombre_complemento_indirecto_singular_alegria'
p98
S'sentimiento_alegria'
p99
sS'_estar_escuchar_objeto'
p100
(lp101
S'escuchar musica'
p102
asS'_rechazo_verbo_verbo_singular'
p103
S'odiar'
p104
sS'Pronombre_complemento_indirecto_singular_verbo_comer_verbo_personal_pasado_Articulos_indefinino_masculino_singular_comida'
p105
(lp106
S'comer algo'
p107
asS'Pronombre_complemento_indirecto_singular_sentir_estado_bueno_locativo_Objetivo'
p108
S'sentimiento_bien'
p109
sS'Pronombre_complemento_indirecto_singular_Gusto_fumar_verbo_singular'
p110
(lp111
S'gustar fumar'
p112
asS'rechazo_verbo_singular_verbo_singular'
p113
S'odio'
p114
sS'Articulos_masculino_singular_estado_tiempo_Pronombre_demostrativo_femenino_singular_adjetivo_malo'
p115
S'clima_malo'
p116
sS'Articulos_masculino_singular_adjetivo_color_ser_verbo_singular_presente_adjetivo_malo'
p117
S'afirmacion_mala'
p118
sS'Pronombre_complemento_indirecto_singular_rechazo_verbo_comer_verbo_singular'
p119
S'odio_accion'
p120
sS'llamado'
p121
S'llamado_atencion'
p122
sS'Articulos_masculino_singular_nombre_ser_verbo_singular_presente_desconocido'
p123
S'afirmacion_mala'
p124
sS'saludo'
p125
S'saludo'
p126
sS'_verbo_ir_Articulos_Dirigido_verbo_regular_verbo_singular'
p127
S'insulto'
p128
sS'ser_Articulos_indefinino_masculino_singular_insulto_suave'
p129
S'insulto_suave'
p130
sS'_estar_estado_bueno_locativo_Objetivo'
p131
S'estado_bien'
p132
sS'Pronombre_complemento_indirecto_singular_cerbo_ir_de_Posesivos_singular_verbo_personal_pasado_lugar'
p133
S'irse_de_lugar'
p134
sS'Pronombre_complemento_indirecto_singular_estado_bueno'
p135
S'auto_afirmacion_buena_de_estado'
p136
sS'adjetivo_bueno_tiempo_verbo_singular_presente'
p137
S'saludo_dia'
p138
sS'_verbo_verbo_singular_personal_temperatura'
p139
S'afirmacion_alta_temperatura'
p140
sS'Pronombre_personales_singular_ser_verbo_singular_presente_adjetivo'
p141
S'afirmacion_buena'
p142
sS'_agradecimiento_verbo_singular_presente'
p143
S'agradecimiento_objetivo'
p144
sS'_tener_mal_de_parte del cuerpo'
p145
(lp146
S'tener enfermedad'
p147
asS'_apreciacion_verbo_comer_verbo_singular_verduras_verbo_singular_presente'
p148
S'comer_algo'
p149
sS'_tener_cantidad_mucha_sentimiento_malo'
p150
S'afirmacion_tener_mucho_de_algo'
p151
sS'_tener_sustantivo'
p152
S'tener_algo'
p153
sS'Pronombre_complemento_indirecto_singular_dolor_Articulos_masculino_singular_parte_cuerpo'
p154
S'o'
sS'verdura'
p155
S'verdura'
p156
sS'_saludo_insulto'
p157
S'insulto'
p158
sS'_test'
p159
S'test'
p160
sS'Pronombre_complemento_indirecto_singular_dolor_Articulos_femenino_singular_parte_cuerpo'
p161
S'o'
sS'verbo_ir_Articulos_Dirigido_Articulos_femenino_singular_objeto'
p162
S'insulto'
p163
sS'negacion_Pronegacionmbre_complemento_indirecto_singular_entendimiento'
p164
S'desentendimiento'
p165
sS'Pronombre_complemento_indirecto_singular_verbo_comer_verbo_personal_pasado_Articulos_indefinino_masculino_singular_verdura'
p166
(lp167
S'comer algo'
p168
asS'_emoticon'
p169
S'emoticon'
p170
sS'Posesivos_singular_verbo_personal_pasado_caracteristica_ser_verbo_singular_presente_adjetivo'
p171
S'afirmacion_algo_corto'
p172
sS'verbo_verbo_singular_personal_baja_temperatura'
p173
S'afirmacion_clima'
p174
sS'Pronombre_complemento_indirecto_singular_Gusto_fumar_verbo_singular_fumar'
p175
(lp176
S'gusto de fumar'
p177
asS'_ser_insulto_suave'
p178
S'insulto_suave'
p179
sS'Pronombre_complemento_indirecto_singular_Gusto_verbo_verbo_singular'
p180
S'gusto_de_accion'
p181
sS'_ser_plural_cantidad_insulto_plural'
p182
S'insulto_plural'
p183
sS'Pronombre_complemento_indirecto_singular_Gusto_verbo_singular_verbo_singular'
p184
S'gusto_saltar'
p185
sS'_verbo_ir_Articulos_Dirigido_Articulos_femenino_singular_prostituta_complemento_Pronombre_complemento_indirecto_singular_verbo_parir'
p186
S'insulto'
p187
sS'complemento_contar_verbo_singular_presente_de_adjetivo'
p188
S'consulta_novedad'
p189
sS'_rechazo_Articulos_masculino_singular_verdura'
p190
S'odio_de_algo'
p191
sS'_adjetivo_malo_verbo_regular_verbo_singular'
p192
S'odio_hacia_hacer_algo'
p193
sS'Pronombre_complemento_indirecto_singular_dolor_Articulos_masculino_singular_parte dle cuerpo'
p194
(lp195
S'dolor de algo'
p196
asS'Pronombre_complemento_indirecto_singular_Gusto_Articulos_femenino_singular_objeto'
p197
(lp198
S'gustar algo'
p199
asS'_verbo_pasado_verbo_personal_pasado_locativo_Articulos_masculino_singular_lugar_locativo_Objetivo'
p200
S'correr hacia un lugar'
p201
sS'_verbo_Articulos_masculino_singular_alimento'
p202
S'adorar algo'
p203
sS'_complemento_contar_verbo_singular_presente_de_algo nuevo'
p204
S'pregunta de novedad'
p205
sS'consulta_estado'
p206
S'pregunta_estado'
p207
sS'Articulos_masculino_singular_estado_tiempo_Pronombre_demostrativo_femenino_singular_adjetivo_bueno'
p208
S'clima_bueno'
p209
sS'salugo'
p210
S'saludo'
p211
sS'_animal'
p212
S'animal'
p213
sS'Pronombre_complemento_indirecto_singular_ir  futuro_Articulos_Dirigido_muerte_verbo_singular'
p214
(lp215
S'vas a morir'
p216
asS'ser_insulto'
p217
S'insulto_grave'
p218
sS'Pronombre_complemento_indirecto_singular_ir  futuro_Articulos_Dirigido_accion_mala_verbo_singular'
p219
(lp220
S'matarme'
p221
asS'verbo_pasado_verbo_personal_pasado_locativo_Posesivos_singular_lugar'
p222
S'correr_hacia_algo'
p223
sS'_numeros'
p224
S'numeros'
p225
sS'_apreciacion_accion_mala_verbo_singular_personas'
p226
S'accion_mala'
p227
sS'_apreciacion_Articulos_femenino_singular_estado_temporal'
p228
S'admiracion_dia'
p229
sS'_estado_mal'
p230
S''
sS'Posesivos_singular_verbo_personal_pasado_animal_ser_verbo_singular_presente_adjetivo_bueno'
p231
S'afirmacion_buena'
p232
sS'_complemento_contar_verbo_singular_presente_de_adjetivo'
p233
S'consulta_novedad'
p234
sS'ser_Articulos_indefinino_masculino_singular_familiar_de_prostituta'
p235
S'insulto'
p236
sS'_insulto'
p237
S'insulto'
p238
sS'Articulos_masculino_singular_alimento_ser_verbo_singular_presente_adjetivo_bueno_verbo_singular_personal'
p239
S'afirmacion_dulce'
p240
sS'Personal_presente_indicativo_insulto'
p241
S'afirmacion_ser_algo_malo'
p242
sS'Pronombre_complemento_directo_masculino_plural_amor'
p243
S'amor_hacia_alguien'
p244
sS'Posesivos_singular_verbo_personal_pasado_animal_ser_verbo_singular_presente_adjetivo_grande'
p245
S'afirmacion_algo grande'
p246
sS'Articulos_femenino_singular_amor'
p247
S'amor_hacia_alguien'
p248
sS'Posesivos_singular_verbo_personal_pasado_comodin_ser_verbo_singular_presente_antepuesto_comodin'
p249
S'afirmacion_caracteristica_sobre_algo'
p250
sS'Pronombre_complemento_indirecto_singular_verbo_comer_verbo_personal_pasado_Articulos_indefinido_femenino_singular_alimento'
p251
(lp252
S'comer algo'
p253
asS'Posesivos_singular_verbo_personal_pasado_clasificativo_ser_verbo_singular_presente'
p254
S'pregunta_nombre'
p255
sS'Pronombre_complemento_indirecto_singular_tomar_Articulos_indefinido_masculino_plural_bebida_verbo_singular_presente'
p256
(lp257
S'tomar bebida'
p258
asS'animal'
p259
S'animal'
p260
sS'_verbo_amar_verbo_malo_verbo_singular'
p261
S'accion_mala'
p262
sS'Pronombre_complemento_indirecto_singular_Gusto_verbo_cantar_verbo_singular'
p263
S'gusto_cantar'
p264
sS'_rechazo_Articulos_masculino_singular_alimento'
p265
S'odio_de_algo'
p266
sS'Posserivos_singular_verbo_personal_pasado_lugar_ser_verbo_singular_prserente_adjetivo'
p267
S'afirmacion_algo_grande'
p268
sS'Expresion_pregunta'
p269
S'pregunta'
p270
sS'_consulta_Pronombre_complemento_indirecto_singular_consulta_estado_verbo_singular_presente'
p271
S'consulta_estado_animico'
p272
sS'_tener_Articulos_indefinino_masculino_singular_dispositivo_verbo_singular'
p273
S'tener_algo'
p274
sS'Pronombre_complemento_indirecto_singular_verbo_singular_orin'
p275
S'ganas_de_ir_al_ba\xa4o'
p276
sS'agradecimiento_verbo_singular_presente'
p277
S'agradecimiento'
p278
sS'_indicador_complemento_ser_agravante_insulto_suave'
p279
S'consulta_sobre_algo'
p280
sS'insulto'
p281
S'insulto'
p282
sS'_complemento_ser_verbo_singular_presente_Articulos_femenino_singular_objeto'
p283
S'pregunta_sobre_algo'
p284
sS'Pronombre_complemento_indirecto_singular_sentir_mal'
p285
S'sentimiento_mal'
p286
sS'_complemento_ser_verbo_singular_presente_indicativo'
p287
S'pregunta_algo'
p288
sS'Pronombre_complemento_indirecto_singular_verbo_Articulos_indefinino_masculino_singular_vehiculo'
p289
S'compra de algo'
p290
sS'_ser_verbo_singular_presente_adjetivo_malo'
p291
S'afirmacion_mala'
p292
sS'estado_antepuesto_mal'
p293
S'estado_malo'
p294
sS'_adjetivo_malo'
p295
S'insulto'
p296
sS'_tener_dolor_de_parte_cuerpo'
p297
S'tener_dolor'
p298
sS'Articulos_masculino_singular_lugar_verbo_singular_ser_verbo_singular_presente_adjetivo'
p299
S'afirmacion_grandeza'
p300
sS'_tener_Articulos_indefinido_femenino_singular_artefacto'
p301
(lp302
S'tener un artefacto'
p303
aS'tener una computadora'
p304
asS'_consulta_estado'
p305
S'como estas'
p306
sS'adjetivo_malo_Articulos_Dirigido_Articulos_femenino_singular_personas'
p307
S'odio_hacia_personas'
p308
s.